; Function Attrs: mustprogress uwtable
define noundef i32 @uspoof_check2_75(ptr noundef %sc, ptr noundef %id, i32 noundef %length, ptr noundef %checkResult, ptr noundef nonnull %status) local_unnamed_addr #0 personality ptr @__gxx_personality_v0 {
entry:
  %idStr = alloca %"class.icu_75::UnicodeString", align 8
  %agg.tmp = alloca %"class.icu_75::ConstChar16Ptr", align 8
  %call = tail call noundef ptr @_ZN6icu_759SpoofImpl12validateThisEPK13USpoofCheckerR10UErrorCode(ptr noundef %sc, ptr noundef nonnull align 4 dereferenceable(4) %status)
  %cmp = icmp eq ptr %call, null
  br i1 %cmp, label %return, label %if.end

if.end:                                           ; preds = %entry
  %cmp1 = icmp slt i32 %length, -1
  br i1 %cmp1, label %if.then2, label %if.end3

if.then2:                                         ; preds = %if.end
  store i32 1, ptr %status, align 4
  br label %return

if.end3:                                          ; preds = %if.end
  %cmp4 = icmp eq i32 %length, -1
  %conv = zext i1 %cmp4 to i8
  store ptr %id, ptr %agg.tmp, align 8
  invoke void @_ZN6icu_7513UnicodeStringC1EaNS_14ConstChar16PtrEi(ptr noundef nonnull align 8 dereferenceable(64) %idStr, i8 noundef signext %conv, ptr noundef nonnull %agg.tmp, i32 noundef %length)
          to label %invoke.cont unwind label %lpad

invoke.cont:                                      ; preds = %if.end3
  %0 = load ptr, ptr %agg.tmp, align 8
  call void asm sideeffect "", "rm,~{memory},~{dirflag},~{fpsr},~{flags}"(ptr %0) #6, !srcloc !4
  %call7 = invoke i32 @uspoof_check2UnicodeString_75(ptr noundef %sc, ptr noundef nonnull align 8 dereferenceable(64) %idStr, ptr noundef %checkResult, ptr noundef nonnull %status)
          to label %invoke.cont6 unwind label %lpad5

invoke.cont6:                                     ; preds = %invoke.cont
  call void @_ZN6icu_7513UnicodeStringD1Ev(ptr noundef nonnull align 8 dereferenceable(64) %idStr) #6
  br label %return

lpad:                                             ; preds = %if.end3
  %1 = landingpad { ptr, i32 }
          cleanup
  %2 = load ptr, ptr %agg.tmp, align 8
  call void asm sideeffect "", "rm,~{memory},~{dirflag},~{fpsr},~{flags}"(ptr %2) #6, !srcloc !4
  br label %eh.resume

lpad5:                                            ; preds = %invoke.cont
  %3 = landingpad { ptr, i32 }
          cleanup
  call void @_ZN6icu_7513UnicodeStringD1Ev(ptr noundef nonnull align 8 dereferenceable(64) %idStr) #6
  br label %eh.resume

return:                                           ; preds = %entry, %invoke.cont6, %if.then2
  %retval.0 = phi i32 [ 0, %if.then2 ], [ %call7, %invoke.cont6 ], [ 0, %entry ]
  ret i32 %retval.0

eh.resume:                                        ; preds = %lpad5, %lpad
  %.pn = phi { ptr, i32 } [ %3, %lpad5 ], [ %1, %lpad ]
  resume { ptr, i32 } %.pn
}